
build/main:     file format elf64-littleriscv


Disassembly of section .plt:

00000000000007b0 <.plt>:
 7b0:	00002397          	auipc	t2,0x2
 7b4:	41c30333          	sub	t1,t1,t3
 7b8:	8403be03          	ld	t3,-1984(t2) # 1ff0 <.got.plt>
 7bc:	fd430313          	addi	t1,t1,-44
 7c0:	84038293          	addi	t0,t2,-1984
 7c4:	00135313          	srli	t1,t1,0x1
 7c8:	0082b283          	ld	t0,8(t0)
 7cc:	000e0067          	jr	t3

00000000000007d0 <__libc_start_main@plt>:
 7d0:	00002e17          	auipc	t3,0x2
 7d4:	830e3e03          	ld	t3,-2000(t3) # 2000 <__libc_start_main@GLIBC_2.34>
 7d8:	000e0367          	jalr	t1,t3
 7dc:	00000013          	nop

00000000000007e0 <syscall@plt>:
 7e0:	00002e17          	auipc	t3,0x2
 7e4:	828e3e03          	ld	t3,-2008(t3) # 2008 <syscall@GLIBC_2.27>
 7e8:	000e0367          	jalr	t1,t3
 7ec:	00000013          	nop

00000000000007f0 <thrd_join@plt>:
 7f0:	00002e17          	auipc	t3,0x2
 7f4:	820e3e03          	ld	t3,-2016(t3) # 2010 <thrd_join@GLIBC_2.34>
 7f8:	000e0367          	jalr	t1,t3
 7fc:	00000013          	nop

0000000000000800 <abort@plt>:
 800:	00002e17          	auipc	t3,0x2
 804:	818e3e03          	ld	t3,-2024(t3) # 2018 <abort@GLIBC_2.27>
 808:	000e0367          	jalr	t1,t3
 80c:	00000013          	nop

0000000000000810 <memcpy@plt>:
 810:	00002e17          	auipc	t3,0x2
 814:	810e3e03          	ld	t3,-2032(t3) # 2020 <memcpy@GLIBC_2.27>
 818:	000e0367          	jalr	t1,t3
 81c:	00000013          	nop

0000000000000820 <clone@plt>:
 820:	00002e17          	auipc	t3,0x2
 824:	808e3e03          	ld	t3,-2040(t3) # 2028 <clone@GLIBC_2.27>
 828:	000e0367          	jalr	t1,t3
 82c:	00000013          	nop

0000000000000830 <posix_memalign@plt>:
 830:	00002e17          	auipc	t3,0x2
 834:	800e3e03          	ld	t3,-2048(t3) # 2030 <posix_memalign@GLIBC_2.27>
 838:	000e0367          	jalr	t1,t3
 83c:	00000013          	nop

0000000000000840 <printf@plt>:
 840:	00001e17          	auipc	t3,0x1
 844:	7f8e3e03          	ld	t3,2040(t3) # 2038 <printf@GLIBC_2.27>
 848:	000e0367          	jalr	t1,t3
 84c:	00000013          	nop

Disassembly of section .text:

0000000000000850 <_start>:
 850:	022000ef          	jal	872 <load_gp>
 854:	87aa                	mv	a5,a0
 856:	00001517          	auipc	a0,0x1
 85a:	77253503          	ld	a0,1906(a0) # 1fc8 <_GLOBAL_OFFSET_TABLE_+0x18>
 85e:	6582                	ld	a1,0(sp)
 860:	0030                	addi	a2,sp,8
 862:	ff017113          	andi	sp,sp,-16
 866:	4681                	li	a3,0
 868:	4701                	li	a4,0
 86a:	880a                	mv	a6,sp
 86c:	f65ff0ef          	jal	7d0 <__libc_start_main@plt>
 870:	9002                	ebreak

0000000000000872 <load_gp>:
 872:	00002197          	auipc	gp,0x2
 876:	fce18193          	addi	gp,gp,-50 # 2840 <__global_pointer$>
 87a:	8082                	ret
	...

000000000000087e <deregister_tm_clones>:
 87e:	00001517          	auipc	a0,0x1
 882:	7ca50513          	addi	a0,a0,1994 # 2048 <live>
 886:	00001797          	auipc	a5,0x1
 88a:	7c278793          	addi	a5,a5,1986 # 2048 <live>
 88e:	00a78863          	beq	a5,a0,89e <deregister_tm_clones+0x20>
 892:	00001797          	auipc	a5,0x1
 896:	7267b783          	ld	a5,1830(a5) # 1fb8 <_ITM_deregisterTMCloneTable@Base>
 89a:	c391                	beqz	a5,89e <deregister_tm_clones+0x20>
 89c:	8782                	jr	a5
 89e:	8082                	ret

00000000000008a0 <register_tm_clones>:
 8a0:	00001517          	auipc	a0,0x1
 8a4:	7a850513          	addi	a0,a0,1960 # 2048 <live>
 8a8:	00001597          	auipc	a1,0x1
 8ac:	7a058593          	addi	a1,a1,1952 # 2048 <live>
 8b0:	8d89                	sub	a1,a1,a0
 8b2:	4035d793          	srai	a5,a1,0x3
 8b6:	91fd                	srli	a1,a1,0x3f
 8b8:	95be                	add	a1,a1,a5
 8ba:	8585                	srai	a1,a1,0x1
 8bc:	c599                	beqz	a1,8ca <register_tm_clones+0x2a>
 8be:	00001797          	auipc	a5,0x1
 8c2:	72a7b783          	ld	a5,1834(a5) # 1fe8 <_ITM_registerTMCloneTable@Base>
 8c6:	c391                	beqz	a5,8ca <register_tm_clones+0x2a>
 8c8:	8782                	jr	a5
 8ca:	8082                	ret

00000000000008cc <__do_global_dtors_aux>:
 8cc:	1141                	addi	sp,sp,-16
 8ce:	e022                	sd	s0,0(sp)
 8d0:	00001417          	auipc	s0,0x1
 8d4:	78040413          	addi	s0,s0,1920 # 2050 <completed.0>
 8d8:	00044783          	lbu	a5,0(s0)
 8dc:	e406                	sd	ra,8(sp)
 8de:	e385                	bnez	a5,8fe <__do_global_dtors_aux+0x32>
 8e0:	00001797          	auipc	a5,0x1
 8e4:	6f87b783          	ld	a5,1784(a5) # 1fd8 <__cxa_finalize@GLIBC_2.27>
 8e8:	c791                	beqz	a5,8f4 <__do_global_dtors_aux+0x28>
 8ea:	00001517          	auipc	a0,0x1
 8ee:	75653503          	ld	a0,1878(a0) # 2040 <__dso_handle>
 8f2:	9782                	jalr	a5
 8f4:	f8bff0ef          	jal	87e <deregister_tm_clones>
 8f8:	4785                	li	a5,1
 8fa:	00f40023          	sb	a5,0(s0)
 8fe:	60a2                	ld	ra,8(sp)
 900:	6402                	ld	s0,0(sp)
 902:	0141                	addi	sp,sp,16
 904:	8082                	ret

0000000000000906 <frame_dummy>:
 906:	bf69                	j	8a0 <register_tm_clones>

0000000000000908 <main>:
 908:	711d                	addi	sp,sp,-96
 90a:	ec86                	sd	ra,88(sp)
 90c:	e8a2                	sd	s0,80(sp)
 90e:	1080                	addi	s0,sp,96
 910:	4501                	li	a0,0
 912:	faa43423          	sd	a0,-88(s0)
 916:	fea42623          	sw	a0,-20(s0)
 91a:	fea43023          	sd	a0,-32(s0)
 91e:	fca43c23          	sd	a0,-40(s0)
 922:	fca43823          	sd	a0,-48(s0)
 926:	fca43423          	sd	a0,-56(s0)
 92a:	fca43023          	sd	a0,-64(s0)
 92e:	4505                	li	a0,1
 930:	fca42023          	sw	a0,-64(s0)
 934:	4509                	li	a0,2
 936:	fca42223          	sw	a0,-60(s0)
 93a:	458d                	li	a1,3
 93c:	fcb42423          	sw	a1,-56(s0)
 940:	fc040593          	addi	a1,s0,-64
 944:	fab43c23          	sd	a1,-72(s0)
 948:	042000ef          	jal	98a <thrd_create>
 94c:	faa42a23          	sw	a0,-76(s0)
 950:	fb843503          	ld	a0,-72(s0)
 954:	fb442583          	lw	a1,-76(s0)
 958:	058a                	slli	a1,a1,0x2
 95a:	95aa                	add	a1,a1,a0
 95c:	4188                	lw	a0,0(a1)
 95e:	0015151b          	slliw	a0,a0,0x1
 962:	c188                	sw	a0,0(a1)
 964:	e8dff0ef          	jal	7f0 <thrd_join@plt>
 968:	fb843503          	ld	a0,-72(s0)
 96c:	410c                	lw	a1,0(a0)
 96e:	4150                	lw	a2,4(a0)
 970:	4514                	lw	a3,8(a0)
 972:	00000517          	auipc	a0,0x0
 976:	2f250513          	addi	a0,a0,754 # c64 <$d.1>
 97a:	ec7ff0ef          	jal	840 <printf@plt>
 97e:	fa843503          	ld	a0,-88(s0)
 982:	60e6                	ld	ra,88(sp)
 984:	6446                	ld	s0,80(sp)
 986:	6125                	addi	sp,sp,96
 988:	8082                	ret

000000000000098a <thrd_create>:
 98a:	7171                	addi	sp,sp,-176
 98c:	f506                	sd	ra,168(sp)
 98e:	f122                	sd	s0,160(sp)
 990:	1900                	addi	s0,sp,176
 992:	fea43023          	sd	a0,-32(s0)
 996:	0b200513          	li	a0,178
 99a:	e47ff0ef          	jal	7e0 <syscall@plt>
 99e:	f6a43023          	sd	a0,-160(s0)
 9a2:	0ac00513          	li	a0,172
 9a6:	e3bff0ef          	jal	7e0 <syscall@plt>
 9aa:	85aa                	mv	a1,a0
 9ac:	f6043503          	ld	a0,-160(s0)
 9b0:	00b51463          	bne	a0,a1,9b8 <thrd_create+0x2e>
 9b4:	01a0006f          	j	9ce <thrd_create+0x44>
 9b8:	0040006f          	j	9bc <thrd_create+0x32>
 9bc:	8512                	mv	a0,tp
 9be:	fca43c23          	sd	a0,-40(s0)
 9c2:	fd843503          	ld	a0,-40(s0)
 9c6:	fea43423          	sd	a0,-24(s0)
 9ca:	13c0006f          	j	b06 <thrd_create+0x17c>
 9ce:	fe043503          	ld	a0,-32(s0)
 9d2:	e119                	bnez	a0,9d8 <thrd_create+0x4e>
 9d4:	01a0006f          	j	9ee <thrd_create+0x64>
 9d8:	0040006f          	j	9dc <thrd_create+0x52>
 9dc:	fe043503          	ld	a0,-32(s0)
 9e0:	45ad                	li	a1,11
 9e2:	00b57463          	bgeu	a0,a1,9ea <thrd_create+0x60>
 9e6:	0120006f          	j	9f8 <thrd_create+0x6e>
 9ea:	0040006f          	j	9ee <thrd_create+0x64>
 9ee:	4501                	li	a0,0
 9f0:	fea43423          	sd	a0,-24(s0)
 9f4:	1120006f          	j	b06 <thrd_create+0x17c>
 9f8:	8526                	mv	a0,s1
 9fa:	f8a43023          	sd	a0,-128(s0)
 9fe:	854a                	mv	a0,s2
 a00:	f8a43423          	sd	a0,-120(s0)
 a04:	854e                	mv	a0,s3
 a06:	f8a43823          	sd	a0,-112(s0)
 a0a:	8552                	mv	a0,s4
 a0c:	f8a43c23          	sd	a0,-104(s0)
 a10:	8556                	mv	a0,s5
 a12:	faa43023          	sd	a0,-96(s0)
 a16:	855a                	mv	a0,s6
 a18:	faa43423          	sd	a0,-88(s0)
 a1c:	855e                	mv	a0,s7
 a1e:	faa43823          	sd	a0,-80(s0)
 a22:	8562                	mv	a0,s8
 a24:	faa43c23          	sd	a0,-72(s0)
 a28:	8562                	mv	a0,s8
 a2a:	faa43c23          	sd	a0,-72(s0)
 a2e:	8566                	mv	a0,s9
 a30:	fca43023          	sd	a0,-64(s0)
 a34:	856a                	mv	a0,s10
 a36:	fca43423          	sd	a0,-56(s0)
 a3a:	856e                	mv	a0,s11
 a3c:	fca43823          	sd	a0,-48(s0)
 a40:	8522                	mv	a0,s0
 a42:	f6a43c23          	sd	a0,-136(s0)
 a46:	ff053503          	ld	a0,-16(a0)
 a4a:	f7843583          	ld	a1,-136(s0)
 a4e:	8d0d                	sub	a0,a0,a1
 a50:	f6a43823          	sd	a0,-144(s0)
 a54:	00001517          	auipc	a0,0x1
 a58:	58c53583          	ld	a1,1420(a0) # 1fe0 <_GLOBAL_OFFSET_TABLE_+0x30>
 a5c:	4505                	li	a0,1
 a5e:	e188                	sd	a0,0(a1)
 a60:	0040006f          	j	a64 <thrd_create+0xda>
 a64:	00001517          	auipc	a0,0x1
 a68:	57c53503          	ld	a0,1404(a0) # 1fe0 <_GLOBAL_OFFSET_TABLE_+0x30>
 a6c:	6108                	ld	a0,0(a0)
 a6e:	fe043583          	ld	a1,-32(s0)
 a72:	0585                	addi	a1,a1,1
 a74:	00b56463          	bltu	a0,a1,a7c <thrd_create+0xf2>
 a78:	0840006f          	j	afc <thrd_create+0x172>
 a7c:	0040006f          	j	a80 <thrd_create+0xf6>
 a80:	f7843583          	ld	a1,-136(s0)
 a84:	f7043603          	ld	a2,-144(s0)
 a88:	f8040513          	addi	a0,s0,-128
 a8c:	086000ef          	jal	b12 <__thrd_create>
 a90:	f6a43423          	sd	a0,-152(s0)
 a94:	0b200513          	li	a0,178
 a98:	d49ff0ef          	jal	7e0 <syscall@plt>
 a9c:	f4a43c23          	sd	a0,-168(s0)
 aa0:	0ac00513          	li	a0,172
 aa4:	d3dff0ef          	jal	7e0 <syscall@plt>
 aa8:	85aa                	mv	a1,a0
 aaa:	f5843503          	ld	a0,-168(s0)
 aae:	00b51463          	bne	a0,a1,ab6 <thrd_create+0x12c>
 ab2:	0380006f          	j	aea <thrd_create+0x160>
 ab6:	0040006f          	j	aba <thrd_create+0x130>
 aba:	0040006f          	j	abe <thrd_create+0x134>
 abe:	00001517          	auipc	a0,0x1
 ac2:	52253503          	ld	a0,1314(a0) # 1fe0 <_GLOBAL_OFFSET_TABLE_+0x30>
 ac6:	6108                	ld	a0,0(a0)
 ac8:	fe043583          	ld	a1,-32(s0)
 acc:	0585                	addi	a1,a1,1
 ace:	00b50463          	beq	a0,a1,ad6 <thrd_create+0x14c>
 ad2:	0140006f          	j	ae6 <thrd_create+0x15c>
 ad6:	0040006f          	j	ada <thrd_create+0x150>
 ada:	f6843503          	ld	a0,-152(s0)
 ade:	fea43423          	sd	a0,-24(s0)
 ae2:	0240006f          	j	b06 <thrd_create+0x17c>
 ae6:	fd9ff06f          	j	abe <thrd_create+0x134>
 aea:	00001517          	auipc	a0,0x1
 aee:	4f653583          	ld	a1,1270(a0) # 1fe0 <_GLOBAL_OFFSET_TABLE_+0x30>
 af2:	6188                	ld	a0,0(a1)
 af4:	0505                	addi	a0,a0,1
 af6:	e188                	sd	a0,0(a1)
 af8:	f6dff06f          	j	a64 <thrd_create+0xda>
 afc:	4501                	li	a0,0
 afe:	fea43423          	sd	a0,-24(s0)
 b02:	0040006f          	j	b06 <thrd_create+0x17c>
 b06:	fe843503          	ld	a0,-24(s0)
 b0a:	70aa                	ld	ra,168(sp)
 b0c:	740a                	ld	s0,160(sp)
 b0e:	614d                	addi	sp,sp,176
 b10:	8082                	ret

0000000000000b12 <__thrd_create>:
 b12:	7119                	addi	sp,sp,-128
 b14:	fc86                	sd	ra,120(sp)
 b16:	f8a2                	sd	s0,112(sp)
 b18:	0100                	addi	s0,sp,128
 b1a:	f8143023          	sd	ra,-128(s0)
 b1e:	fea43423          	sd	a0,-24(s0)
 b22:	feb43023          	sd	a1,-32(s0)
 b26:	fcc43c23          	sd	a2,-40(s0)
 b2a:	00001517          	auipc	a0,0x1
 b2e:	4b653503          	ld	a0,1206(a0) # 1fe0 <_GLOBAL_OFFSET_TABLE_+0x30>
 b32:	6108                	ld	a0,0(a0)
 b34:	fca43823          	sd	a0,-48(s0)
 b38:	fc840513          	addi	a0,s0,-56
 b3c:	45c1                	li	a1,16
 b3e:	6641                	lui	a2,0x10
 b40:	cf1ff0ef          	jal	830 <posix_memalign@plt>
 b44:	e119                	bnez	a0,b4a <__thrd_create+0x38>
 b46:	00c0006f          	j	b52 <__thrd_create+0x40>
 b4a:	0040006f          	j	b4e <__thrd_create+0x3c>
 b4e:	cb3ff0ef          	jal	800 <abort@plt>
 b52:	fc843503          	ld	a0,-56(s0)
 b56:	65c1                	lui	a1,0x10
 b58:	952e                	add	a0,a0,a1
 b5a:	fca43023          	sd	a0,-64(s0)
 b5e:	fc843503          	ld	a0,-56(s0)
 b62:	fd043583          	ld	a1,-48(s0)
 b66:	00359613          	slli	a2,a1,0x3
 b6a:	00001597          	auipc	a1,0x1
 b6e:	4565b583          	ld	a1,1110(a1) # 1fc0 <_GLOBAL_OFFSET_TABLE_+0x10>
 b72:	95b2                	add	a1,a1,a2
 b74:	e188                	sd	a0,0(a1)
 b76:	fc043503          	ld	a0,-64(s0)
 b7a:	fd843603          	ld	a2,-40(s0)
 b7e:	8d11                	sub	a0,a0,a2
 b80:	fe043583          	ld	a1,-32(s0)
 b84:	c8dff0ef          	jal	810 <memcpy@plt>
 b88:	8522                	mv	a0,s0
 b8a:	faa43c23          	sd	a0,-72(s0)
 b8e:	ff053503          	ld	a0,-16(a0)
 b92:	fb843583          	ld	a1,-72(s0)
 b96:	8d0d                	sub	a0,a0,a1
 b98:	faa43823          	sd	a0,-80(s0)
 b9c:	fc043503          	ld	a0,-64(s0)
 ba0:	fd843583          	ld	a1,-40(s0)
 ba4:	8d0d                	sub	a0,a0,a1
 ba6:	fb043603          	ld	a2,-80(s0)
 baa:	8d11                	sub	a0,a0,a2
 bac:	fb843583          	ld	a1,-72(s0)
 bb0:	c61ff0ef          	jal	810 <memcpy@plt>
 bb4:	f8043503          	ld	a0,-128(s0)
 bb8:	fe843583          	ld	a1,-24(s0)
 bbc:	f8b43423          	sd	a1,-120(s0)
 bc0:	fd043583          	ld	a1,-48(s0)
 bc4:	f8b43823          	sd	a1,-112(s0)
 bc8:	f8a43c23          	sd	a0,-104(s0)
 bcc:	fc043503          	ld	a0,-64(s0)
 bd0:	fd843583          	ld	a1,-40(s0)
 bd4:	8d0d                	sub	a0,a0,a1
 bd6:	faa43023          	sd	a0,-96(s0)
 bda:	fc043503          	ld	a0,-64(s0)
 bde:	fd843583          	ld	a1,-40(s0)
 be2:	8d0d                	sub	a0,a0,a1
 be4:	fb043583          	ld	a1,-80(s0)
 be8:	8d0d                	sub	a0,a0,a1
 bea:	faa43423          	sd	a0,-88(s0)
 bee:	fc043503          	ld	a0,-64(s0)
 bf2:	fa043583          	ld	a1,-96(s0)
 bf6:	fea5b823          	sd	a0,-16(a1)
 bfa:	fc043583          	ld	a1,-64(s0)
 bfe:	00001517          	auipc	a0,0x1
 c02:	3d253503          	ld	a0,978(a0) # 1fd0 <_GLOBAL_OFFSET_TABLE_+0x20>
 c06:	01351637          	lui	a2,0x1351
 c0a:	f006061b          	addiw	a2,a2,-256 # 1350f00 <__global_pointer$+0x134e6c0>
 c0e:	f8840693          	addi	a3,s0,-120
 c12:	c0fff0ef          	jal	820 <clone@plt>
 c16:	4501                	li	a0,0
 c18:	70e6                	ld	ra,120(sp)
 c1a:	7446                	ld	s0,112(sp)
 c1c:	6109                	addi	sp,sp,128
 c1e:	8082                	ret

0000000000000c20 <son>:
 c20:	00053303          	ld	t1,0(a0)
 c24:	02053103          	ld	sp,32(a0)
 c28:	6d00                	ld	s0,24(a0)
 c2a:	00033483          	ld	s1,0(t1)
 c2e:	00833903          	ld	s2,8(t1)
 c32:	01033983          	ld	s3,16(t1)
 c36:	01833a03          	ld	s4,24(t1)
 c3a:	02033a83          	ld	s5,32(t1)
 c3e:	02833b03          	ld	s6,40(t1)
 c42:	03033b83          	ld	s7,48(t1)
 c46:	03833c03          	ld	s8,56(t1)
 c4a:	04033c83          	ld	s9,64(t1)
 c4e:	04833d03          	ld	s10,72(t1)
 c52:	05033d83          	ld	s11,80(t1)
 c56:	01053083          	ld	ra,16(a0)
 c5a:	6508                	ld	a0,8(a0)
 c5c:	8082                	ret
